; Function Attrs: mustprogress uwtable
define void @_ZN3gmx28AnalysisDataBinAverageModuleC2Ev(ptr noundef nonnull align 8 dereferenceable(112) %0) unnamed_addr #3 align 2 personality ptr @__gxx_personality_v0 {
  tail call void @_ZN3gmx25AbstractAnalysisArrayDataC2Ev(ptr noundef nonnull align 8 dereferenceable(94) %0)
  %2 = getelementptr inbounds i8, ptr %0, i64 96
  store ptr getelementptr inbounds inrange(-16, 88) ({ [13 x ptr], [12 x ptr] }, ptr @_ZTVN3gmx28AnalysisDataBinAverageModuleE, i64 0, i32 0, i64 2), ptr %0, align 8
  store ptr getelementptr inbounds inrange(-16, 80) ({ [13 x ptr], [12 x ptr] }, ptr @_ZTVN3gmx28AnalysisDataBinAverageModuleE, i64 0, i32 1, i64 2), ptr %2, align 8
  %3 = getelementptr inbounds i8, ptr %0, i64 104
  %4 = invoke noalias noundef nonnull dereferenceable(48) ptr @_Znwm(i64 noundef 48) #29
          to label %5 unwind label %9

5:                                                ; preds = %1
  invoke void @_ZN3gmx25AnalysisHistogramSettingsC1Ev(ptr noundef nonnull align 4 dereferenceable(21) %4)
          to label %6 unwind label %11

6:                                                ; preds = %5
  %7 = getelementptr inbounds i8, ptr %4, i64 24
  tail call void @llvm.memset.p0.i64(ptr noundef nonnull align 8 dereferenceable(24) %7, i8 0, i64 24, i1 false)
  store ptr %4, ptr %3, align 8
  invoke void @_ZN3gmx25AbstractAnalysisArrayData14setColumnCountEi(ptr noundef nonnull align 8 dereferenceable(94) %0, i32 noundef 3)
          to label %8 unwind label %13

8:                                                ; preds = %6
  ret void

9:                                                ; preds = %1
  %10 = landingpad { ptr, i32 }
          cleanup
  br label %15

11:                                               ; preds = %5
  %12 = landingpad { ptr, i32 }
          cleanup
  tail call void @_ZdlPv(ptr noundef nonnull %4) #27
  br label %15

13:                                               ; preds = %6
  %14 = landingpad { ptr, i32 }
          cleanup
  tail call void @_ZNSt10unique_ptrIN3gmx28AnalysisDataBinAverageModule4ImplESt14default_deleteIS2_EED2Ev(ptr noundef nonnull align 8 dereferenceable(8) %3) #26
  br label %15

15:                                               ; preds = %13, %11, %9
  %.pn = phi { ptr, i32 } [ %14, %13 ], [ %12, %11 ], [ %10, %9 ]
  tail call void @_ZN3gmx25AbstractAnalysisArrayDataD2Ev(ptr noundef nonnull align 8 dereferenceable(94) %0) #26
  resume { ptr, i32 } %.pn
}